; Function Attrs: mustprogress uwtable
define hidden void @_ZN7nanogui6Widget14perform_layoutEP10NVGcontext(ptr noundef nonnull align 8 dereferenceable(140) %0, ptr noundef %1) unnamed_addr #0 align 2 {
  %3 = getelementptr inbounds i8, ptr %0, i64 32
  %4 = load ptr, ptr %3, align 8
  %.not = icmp eq ptr %4, null
  br i1 %.not, label %9, label %5

5:                                                ; preds = %2
  %6 = load ptr, ptr %4, align 8
  %7 = getelementptr inbounds i8, ptr %6, i64 16
  %8 = load ptr, ptr %7, align 8
  tail call void %8(ptr noundef nonnull align 8 dereferenceable(12) %4, ptr noundef %1, ptr noundef nonnull %0)
  br label %.loopexit

9:                                                ; preds = %2
  %10 = getelementptr inbounds i8, ptr %0, i64 64
  %11 = load ptr, ptr %10, align 8
  %12 = getelementptr inbounds i8, ptr %0, i64 72
  %13 = load ptr, ptr %12, align 8
  %.not2526 = icmp eq ptr %11, %13
  br i1 %.not2526, label %.loopexit, label %.lr.ph

.lr.ph:                                           ; preds = %9, %.lr.ph
  %.sroa.022.027 = phi ptr [ %26, %.lr.ph ], [ %11, %9 ]
  %14 = load ptr, ptr %.sroa.022.027, align 8
  %15 = load ptr, ptr %14, align 8
  %16 = getelementptr inbounds i8, ptr %15, i64 96
  %17 = load ptr, ptr %16, align 8
  %18 = tail call i64 %17(ptr noundef nonnull align 8 dereferenceable(140) %14, ptr noundef %1)
  %.sroa.019.0.extract.trunc = trunc i64 %18 to i32
  %.sroa.220.0.extract.shift = lshr i64 %18, 32
  %.sroa.220.0.extract.trunc = trunc i64 %.sroa.220.0.extract.shift to i32
  %19 = getelementptr inbounds i8, ptr %14, i64 56
  %20 = load i32, ptr %19, align 4
  %.sroa_idx = getelementptr inbounds i8, ptr %14, i64 60
  %21 = load i32, ptr %.sroa_idx, align 4
  %.not10 = icmp eq i32 %20, 0
  %spec.select = select i1 %.not10, i32 %.sroa.019.0.extract.trunc, i32 %20
  %.not11 = icmp eq i32 %21, 0
  %.in12.sroa.speculated = select i1 %.not11, i32 %.sroa.220.0.extract.trunc, i32 %21
  %22 = getelementptr inbounds i8, ptr %14, i64 48
  %.sroa.2.0.insert.ext = zext i32 %.in12.sroa.speculated to i64
  %.sroa.2.0.insert.shift = shl nuw i64 %.sroa.2.0.insert.ext, 32
  %.sroa.0.0.insert.ext = zext i32 %spec.select to i64
  %.sroa.0.0.insert.insert = or disjoint i64 %.sroa.2.0.insert.shift, %.sroa.0.0.insert.ext
  store i64 %.sroa.0.0.insert.insert, ptr %22, align 8
  %23 = load ptr, ptr %14, align 8
  %24 = getelementptr inbounds i8, ptr %23, i64 104
  %25 = load ptr, ptr %24, align 8
  tail call void %25(ptr noundef nonnull align 8 dereferenceable(140) %14, ptr noundef %1)
  %26 = getelementptr inbounds i8, ptr %.sroa.022.027, i64 8
  %.not25 = icmp eq ptr %26, %13
  br i1 %.not25, label %.loopexit, label %.lr.ph

.loopexit:                                        ; preds = %.lr.ph, %9, %5
  ret void
}